; Function Attrs: mustprogress nounwind uwtable
define hidden void @_ZN4cvc58internal6theory7strings11ArraySolverD2Ev(ptr noundef nonnull align 8 dereferenceable(496) initializes((0, 8), (440, 448)) %0) unnamed_addr #5 align 2 personality ptr @__gxx_personality_v0 {
  store ptr getelementptr inbounds nuw inrange(-16, 16) (i8, ptr @_ZTVN4cvc58internal6theory7strings11ArraySolverE, i64 16), ptr %0, align 8, !tbaa !3
  %2 = getelementptr inbounds nuw i8, ptr %0, i64 440
  store ptr getelementptr inbounds nuw inrange(-16, 32) (i8, ptr @_ZTVN4cvc57context15CDInsertHashMapINS_8internal12NodeTemplateILb1EEEbSt4hashIS4_EEE, i64 16), ptr %2, align 8, !tbaa !3
  invoke void @_ZN4cvc57context10ContextObj7destroyEv(ptr noundef nonnull align 8 dereferenceable(56) %2)
          to label %3 unwind label %9

3:                                                ; preds = %1
  %4 = getelementptr inbounds nuw i8, ptr %0, i64 480
  %5 = load ptr, ptr %4, align 8, !tbaa !44
  %6 = icmp eq ptr %5, null
  br i1 %6, label %_ZN4cvc57context15CDInsertHashMapINS_8internal12NodeTemplateILb1EEEbSt4hashIS4_EED2Ev.exit, label %7

7:                                                ; preds = %3
  %8 = getelementptr inbounds nuw i8, ptr %5, i64 80
  tail call void @_ZNSt10_HashtableIKN4cvc58internal12NodeTemplateILb1EEESt4pairIS4_KbESaIS7_ENSt8__detail10_Select1stESt8equal_toIS4_ESt4hashIS3_ENS9_18_Mod_range_hashingENS9_20_Default_ranged_hashENS9_20_Prime_rehash_policyENS9_17_Hashtable_traitsILb1ELb0ELb1EEEED2Ev(ptr noundef nonnull align 8 dereferenceable(56) %8) #23
  tail call void @_ZNSt5dequeIN4cvc58internal12NodeTemplateILb1EEESaIS3_EED2Ev(ptr noundef nonnull align 8 dereferenceable(136) %5) #23
  tail call void @_ZdlPvm(ptr noundef nonnull %5, i64 noundef 136) #25
  br label %_ZN4cvc57context15CDInsertHashMapINS_8internal12NodeTemplateILb1EEEbSt4hashIS4_EED2Ev.exit

9:                                                ; preds = %1
  %10 = landingpad { ptr, i32 }
          catch ptr null
  %11 = extractvalue { ptr, i32 } %10, 0
  tail call void @__clang_call_terminate(ptr %11) #26
  unreachable

_ZN4cvc57context15CDInsertHashMapINS_8internal12NodeTemplateILb1EEEbSt4hashIS4_EED2Ev.exit: ; preds = %3, %7
  %12 = getelementptr inbounds nuw i8, ptr %0, i64 120
  tail call void @_ZN4cvc58internal6theory7strings15ArrayCoreSolverD1Ev(ptr noundef nonnull align 8 dereferenceable(320) %12) #23
  %13 = getelementptr inbounds nuw i8, ptr %0, i64 112
  %14 = load ptr, ptr %13, align 8, !tbaa !33
  %15 = load i64, ptr %14, align 8
  %16 = and i64 %15, 1152920405095219200
  %.not.i.i = icmp eq i64 %16, 1152920405095219200
  br i1 %.not.i.i, label %_ZN4cvc58internal12NodeTemplateILb1EED2Ev.exit, label %17, !prof !52

17:                                               ; preds = %_ZN4cvc57context15CDInsertHashMapINS_8internal12NodeTemplateILb1EEEbSt4hashIS4_EED2Ev.exit
  %18 = add i64 %15, 1152920405095219200
  %19 = and i64 %18, 1152920405095219200
  %20 = and i64 %15, -1152920405095219201
  %21 = or disjoint i64 %19, %20
  store i64 %21, ptr %14, align 8
  %22 = icmp eq i64 %19, 0
  br i1 %22, label %23, label %_ZN4cvc58internal12NodeTemplateILb1EED2Ev.exit, !prof !52

23:                                               ; preds = %17
  invoke void @_ZN4cvc58internal4expr9NodeValue15markForDeletionEv(ptr noundef nonnull align 8 dereferenceable(24) %14)
          to label %_ZN4cvc58internal12NodeTemplateILb1EED2Ev.exit unwind label %24

24:                                               ; preds = %23
  %25 = landingpad { ptr, i32 }
          catch ptr null
  %26 = extractvalue { ptr, i32 } %25, 0
  tail call void @__clang_call_terminate(ptr %26) #26
  unreachable

_ZN4cvc58internal12NodeTemplateILb1EED2Ev.exit:   ; preds = %_ZN4cvc57context15CDInsertHashMapINS_8internal12NodeTemplateILb1EEEbSt4hashIS4_EED2Ev.exit, %17, %23
  %27 = getelementptr inbounds nuw i8, ptr %0, i64 64
  %28 = getelementptr inbounds nuw i8, ptr %0, i64 80
  %29 = load ptr, ptr %28, align 8, !tbaa !26
  invoke void @_ZNSt8_Rb_treeIN4cvc58internal4kind6Kind_tESt4pairIKS3_St6vectorINS1_12NodeTemplateILb1EEESaIS8_EEESt10_Select1stISB_ESt4lessIS3_ESaISB_EE8_M_eraseEPSt13_Rb_tree_nodeISB_E(ptr noundef nonnull align 8 dereferenceable(48) %27, ptr noundef %29)
          to label %_ZNSt3mapIN4cvc58internal4kind6Kind_tESt6vectorINS1_12NodeTemplateILb1EEESaIS6_EESt4lessIS3_ESaISt4pairIKS3_S8_EEED2Ev.exit unwind label %30

30:                                               ; preds = %_ZN4cvc58internal12NodeTemplateILb1EED2Ev.exit
  %31 = landingpad { ptr, i32 }
          catch ptr null
  %32 = extractvalue { ptr, i32 } %31, 0
  tail call void @__clang_call_terminate(ptr %32) #26
  unreachable

_ZNSt3mapIN4cvc58internal4kind6Kind_tESt6vectorINS1_12NodeTemplateILb1EEESaIS6_EESt4lessIS3_ESaISt4pairIKS3_S8_EEED2Ev.exit: ; preds = %_ZN4cvc58internal12NodeTemplateILb1EED2Ev.exit
  ret void
}